; Function Attrs: mustprogress nofree norecurse nosync nounwind willreturn memory(argmem: read) uwtable
define dso_local noundef nonnull align 1 dereferenceable(1) ptr @_ZN7doctest6StringixEj(ptr noundef nonnull readonly align 8 dereferenceable(24) %0, i32 noundef %1) local_unnamed_addr #17 align 2 {
  %3 = getelementptr inbounds nuw i8, ptr %0, i64 23
  %4 = load i8, ptr %3, align 1, !tbaa !38
  %5 = zext i32 %1 to i64
  %6 = load ptr, ptr %0, align 8
  %7 = icmp slt i8 %4, 0
  %.0.v = select i1 %7, ptr %6, ptr %0
  %.0 = getelementptr inbounds nuw i8, ptr %.0.v, i64 %5
  ret ptr %.0
}